; Function Attrs: nounwind uwtable
define internal fastcc i32 @overlay_get_target(ptr noundef %0, ptr noundef %1, i32 noundef range(i32 0, -2147483648) %2, ptr noundef writeonly captures(address_is_null) %3) unnamed_addr #0 {
  %5 = alloca i32, align 4
  %6 = alloca i32, align 4
  call void @llvm.lifetime.start.p0(i64 4, ptr nonnull %6) #8
  store i32 0, ptr %6, align 4, !tbaa !3
  call void @llvm.lifetime.start.p0(i64 4, ptr nonnull %5) #8
  %7 = call ptr @fdt_getprop(ptr noundef %1, i32 noundef range(i32 0, -2147483648) %2, ptr noundef nonnull @.str.7, ptr noundef nonnull %5) #8
  %.not.i = icmp eq ptr %7, null
  br i1 %.not.i, label %overlay_get_target_phandle.exit.thread29, label %8

overlay_get_target_phandle.exit.thread29:         ; preds = %4
  call void @llvm.lifetime.end.p0(i64 4, ptr nonnull %5) #8
  br label %11

8:                                                ; preds = %4
  %9 = load i32, ptr %5, align 4, !tbaa !3
  %.not6.i = icmp eq i32 %9, 4
  br i1 %.not6.i, label %overlay_get_target_phandle.exit, label %overlay_get_target_phandle.exit.thread

overlay_get_target_phandle.exit.thread:           ; preds = %8
  call void @llvm.lifetime.end.p0(i64 4, ptr nonnull %5) #8
  br label %25

overlay_get_target_phandle.exit:                  ; preds = %8
  %10 = load i32, ptr %7, align 4, !tbaa !3
  %rev.i.i = call noundef i32 @llvm.bswap.i32(i32 %10)
  call void @llvm.lifetime.end.p0(i64 4, ptr nonnull %5) #8
  switch i32 %rev.i.i, label %17 [
    i32 -1, label %25
    i32 0, label %11
  ]

11:                                               ; preds = %overlay_get_target_phandle.exit.thread29, %overlay_get_target_phandle.exit
  %12 = call ptr @fdt_getprop(ptr noundef %1, i32 noundef %2, ptr noundef nonnull @.str.6, ptr noundef nonnull %6) #8
  %.not25 = icmp eq ptr %12, null
  br i1 %.not25, label %15, label %13

13:                                               ; preds = %11
  %14 = call i32 @fdt_path_offset(ptr noundef %0, ptr noundef nonnull %12) #8
  %.pre = load i32, ptr %6, align 4
  br label %19

15:                                               ; preds = %11
  %16 = load i32, ptr %6, align 4, !tbaa !3
  br label %19

17:                                               ; preds = %overlay_get_target_phandle.exit
  %18 = call i32 @fdt_node_offset_by_phandle(ptr noundef %0, i32 noundef %rev.i.i) #8
  br label %19

19:                                               ; preds = %13, %15, %17
  %20 = phi i32 [ 0, %17 ], [ %.pre, %13 ], [ %16, %15 ]
  %.020 = phi ptr [ null, %17 ], [ %12, %13 ], [ null, %15 ]
  %.0 = phi i32 [ %18, %17 ], [ %14, %13 ], [ %16, %15 ]
  %21 = icmp slt i32 %.0, 0
  %22 = icmp eq i32 %20, -1
  %or.cond = select i1 %21, i1 %22, i1 false
  %spec.store.select = select i1 %or.cond, i32 -16, i32 %.0
  %23 = icmp slt i32 %spec.store.select, 0
  %.not26 = icmp eq ptr %3, null
  %or.cond27 = or i1 %.not26, %23
  br i1 %or.cond27, label %25, label %24

24:                                               ; preds = %19
  store ptr %.020, ptr %3, align 8, !tbaa !8
  br label %25

25:                                               ; preds = %overlay_get_target_phandle.exit.thread, %24, %19, %overlay_get_target_phandle.exit
  %.021 = phi i32 [ -6, %overlay_get_target_phandle.exit ], [ %spec.store.select, %19 ], [ %.0, %24 ], [ -6, %overlay_get_target_phandle.exit.thread ]
  call void @llvm.lifetime.end.p0(i64 4, ptr nonnull %6) #8
  ret i32 %.021
}